(dp1
Vcircle
p2
(dp3
S'knots'
p4
(lp5
F-2
aF-1
aF0
aF1
aF2
aF3
aF4
aF5
aF6
aF7
aF8
aF9
aF10
asS'spans'
p6
I8
sS'form'
p7
S'periodic'
p8
sS'degree'
p9
I3
sS'cvs'
p10
(lp11
(F0.78361162489122504
F4.7982373409884682e-17
F-0.78361162489122382
tp12
a(F-1.2643170607829326e-16
F6.7857323231109134e-17
F-1.1081941875543879
tp13
a(F-0.78361162489122427
F4.7982373409884713e-17
F-0.78361162489122427
tp14
a(F-1.1081941875543879
F1.9663354616187859e-32
F-3.2112695072372299e-16
tp15
a(F-0.78361162489122449
F-4.7982373409884694e-17
F0.78361162489122405
tp16
a(F-3.3392053635905195e-16
F-6.7857323231109146e-17
F1.1081941875543881
tp17
a(F0.78361162489122382
F-4.7982373409884719e-17
F0.78361162489122438
tp18
a(F1.1081941875543879
F-3.6446300679047921e-32
F5.9521325992805852e-16
tp19
a(F0.78361162489122504
F4.7982373409884682e-17
F-0.78361162489122382
tp20
a(F-1.2643170607829326e-16
F6.7857323231109134e-17
F-1.1081941875543879
tp21
a(F-0.78361162489122427
F4.7982373409884713e-17
F-0.78361162489122427
tp22
assVdiamond
p23
(dp24
g4
(lp25
F0
aF1
aF2
aF3
aF4
asg6
I4
sg7
S'open'
p26
sg9
I1
sg10
(lp27
(F0
F0
F3
tp28
a(F3
F0
F0
tp29
a(F0
F0
F-3
tp30
a(F-3
F0
F0
tp31
a(F0
F0
F3
tp32
assVball
p33
(dp34
g4
(lp35
F0
aF1
aF2
aF3
aF4
aF5
aF6
aF7
aF8
aF9
aF10
aF11
aF12
aF13
aF14
aF15
aF16
aF17
aF18
aF19
aF20
aF21
aF22
aF23
aF24
aF25
aF26
aF27
aF28
aF29
aF30
aF31
aF32
aF33
aF34
aF35
aF36
aF37
aF38
aF39
aF40
aF41
aF42
aF43
aF44
aF45
aF46
aF47
aF48
aF49
aF50
aF51
aF52
aF53
aF54
aF55
aF56
aF57
aF58
aF59
aF60
aF61
aF62
aF63
aF64
aF65
aF66
aF67
aF68
aF69
aF70
aF71
aF72
aF73
aF74
aF75
aF76
aF77
aF78
aF79
aF80
aF81
aF82
aF83
aF84
aF85
aF86
aF87
aF88
aF89
aF90
aF91
aF92
aF93
aF94
aF95
aF96
aF97
aF98
aF99
aF100
asg6
I100
sg7
g26
sg9
I1
sg10
(lp36
(F0
F1
F0
tp37
a(F0
F0.98768800000000001
F-0.15643499999999999
tp38
a(F0
F0.95105700000000004
F-0.30901699999999999
tp39
a(F0
F0.89100699999999999
F-0.45399099999999998
tp40
a(F0
F0.80901699999999999
F-0.58778600000000003
tp41
a(F0
F0.70710700000000004
F-0.70710700000000004
tp42
a(F0
F0.587785
F-0.80901699999999999
tp43
a(F0
F0.45399099999999998
F-0.89100699999999999
tp44
a(F0
F0.30901699999999999
F-0.95105700000000004
tp45
a(F0
F0.15643399999999999
F-0.98768900000000004
tp46
a(F0
F0
F-1
tp47
a(F0
F-0.15643399999999999
F-0.98768900000000004
tp48
a(F0
F-0.30901699999999999
F-0.95105700000000004
tp49
a(F0
F-0.45399099999999998
F-0.89100699999999999
tp50
a(F0
F-0.587785
F-0.80901699999999999
tp51
a(F0
F-0.70710700000000004
F-0.70710700000000004
tp52
a(F0
F-0.80901699999999999
F-0.58778600000000003
tp53
a(F0
F-0.89100699999999999
F-0.45399099999999998
tp54
a(F0
F-0.95105700000000004
F-0.30901699999999999
tp55
a(F0
F-0.98768800000000001
F-0.15643499999999999
tp56
a(F0
F-1
F0
tp57
a(F-4.6621100000000001e-09
F-0.98768800000000001
F0.15643399999999999
tp58
a(F-9.2094199999999998e-09
F-0.95105700000000004
F0.30901699999999999
tp59
a(F-1.3529999999999999e-08
F-0.89100699999999999
F0.45399099999999998
tp60
a(F-1.7517400000000002e-08
F-0.80901699999999999
F0.587785
tp61
a(F-2.1073400000000001e-08
F-0.70710700000000004
F0.70710700000000004
tp62
a(F-2.4110599999999998e-08
F-0.587785
F0.80901699999999999
tp63
a(F-2.65541e-08
F-0.45399099999999998
F0.89100699999999999
tp64
a(F-2.8343699999999999e-08
F-0.30901699999999999
F0.95105700000000004
tp65
a(F-2.94354e-08
F-0.15643399999999999
F0.98768800000000001
tp66
a(F-2.9802300000000001e-08
F0
F1
tp67
a(F-2.94354e-08
F0.15643399999999999
F0.98768800000000001
tp68
a(F-2.8343699999999999e-08
F0.30901699999999999
F0.95105700000000004
tp69
a(F-2.65541e-08
F0.45399099999999998
F0.89100699999999999
tp70
a(F-2.4110599999999998e-08
F0.587785
F0.80901699999999999
tp71
a(F-2.1073400000000001e-08
F0.70710700000000004
F0.70710700000000004
tp72
a(F-1.7517400000000002e-08
F0.80901699999999999
F0.587785
tp73
a(F-1.3529999999999999e-08
F0.89100699999999999
F0.45399099999999998
tp74
a(F-9.2094199999999998e-09
F0.95105700000000004
F0.30901699999999999
tp75
a(F-4.6621100000000001e-09
F0.98768800000000001
F0.15643399999999999
tp76
a(F0
F1
F0
tp77
a(F-0.15643499999999999
F0.98768800000000001
F0
tp78
a(F-0.30901699999999999
F0.95105700000000004
F0
tp79
a(F-0.45399099999999998
F0.89100699999999999
F0
tp80
a(F-0.587785
F0.80901699999999999
F0
tp81
a(F-0.70710700000000004
F0.70710700000000004
F0
tp82
a(F-0.80901699999999999
F0.587785
F0
tp83
a(F-0.89100699999999999
F0.45399099999999998
F0
tp84
a(F-0.95105700000000004
F0.30901699999999999
F0
tp85
a(F-0.98768900000000004
F0.15643399999999999
F0
tp86
a(F-1
F0
F0
tp87
a(F-0.98768900000000004
F-0.15643399999999999
F0
tp88
a(F-0.95105700000000004
F-0.30901699999999999
F0
tp89
a(F-0.89100699999999999
F-0.45399099999999998
F0
tp90
a(F-0.80901699999999999
F-0.587785
F0
tp91
a(F-0.70710700000000004
F-0.70710700000000004
F0
tp92
a(F-0.587785
F-0.80901699999999999
F0
tp93
a(F-0.45399099999999998
F-0.89100699999999999
F0
tp94
a(F-0.30901699999999999
F-0.95105700000000004
F0
tp95
a(F-0.15643499999999999
F-0.98768800000000001
F0
tp96
a(F0
F-1
F0
tp97
a(F0.15643399999999999
F-0.98768800000000001
F0
tp98
a(F0.30901699999999999
F-0.95105700000000004
F0
tp99
a(F0.45399099999999998
F-0.89100699999999999
F0
tp100
a(F0.587785
F-0.80901699999999999
F0
tp101
a(F0.70710700000000004
F-0.70710700000000004
F0
tp102
a(F0.80901699999999999
F-0.587785
F0
tp103
a(F0.89100599999999996
F-0.45399099999999998
F0
tp104
a(F0.95105700000000004
F-0.30901699999999999
F0
tp105
a(F0.98768800000000001
F-0.15643399999999999
F0
tp106
a(F1
F0
F0
tp107
a(F0.95105700000000004
F0
F-0.30901699999999999
tp108
a(F0.80901800000000001
F0
F-0.58778600000000003
tp109
a(F0.58778600000000003
F0
F-0.80901699999999999
tp110
a(F0.30901699999999999
F0
F-0.95105700000000004
tp111
a(F0
F0
F-1
tp112
a(F-0.30901699999999999
F0
F-0.95105700000000004
tp113
a(F-0.587785
F0
F-0.80901699999999999
tp114
a(F-0.80901699999999999
F0
F-0.587785
tp115
a(F-0.95105700000000004
F0
F-0.30901699999999999
tp116
a(F-1
F0
F0
tp117
a(F-0.95105700000000004
F0
F0.30901699999999999
tp118
a(F-0.80901699999999999
F0
F0.587785
tp119
a(F-0.587785
F0
F0.80901699999999999
tp120
a(F-0.30901699999999999
F0
F0.95105700000000004
tp121
a(F-2.9802300000000001e-08
F0
F1
tp122
a(F0.30901699999999999
F0
F0.95105700000000004
tp123
a(F0.587785
F0
F0.80901699999999999
tp124
a(F0.80901699999999999
F0
F0.587785
tp125
a(F0.95105700000000004
F0
F0.30901699999999999
tp126
a(F1
F0
F0
tp127
a(F0.98768800000000001
F0.15643399999999999
F0
tp128
a(F0.95105700000000004
F0.30901699999999999
F0
tp129
a(F0.89100599999999996
F0.45399099999999998
F0
tp130
a(F0.80901699999999999
F0.587785
F0
tp131
a(F0.70710700000000004
F0.70710700000000004
F0
tp132
a(F0.587785
F0.80901699999999999
F0
tp133
a(F0.45399099999999998
F0.89100699999999999
F0
tp134
a(F0.30901699999999999
F0.95105700000000004
F0
tp135
a(F0.15643399999999999
F0.98768800000000001
F0
tp136
a(F0
F1
F0
tp137
ass.